Certificate:
    Data:
        Version: 3 (0x2)
        Serial Number:
            0d:8e:f9:53:05:bb:96:02:9f:b9:7f:c1:9d:ed:76:8d
    Signature Algorithm: sha256WithRSAEncryption
        Issuer: CN=Easy-RSA CA
        Validity
            Not Before: Dec 21 17:55:45 2020 GMT
            Not After : Mar 26 17:55:45 2023 GMT
        Subject: CN=client1.domain.tld
        Subject Public Key Info:
            Public Key Algorithm: rsaEncryption
                Public-Key: (2048 bit)
                Modulus:
                    00:d3:f8:ee:ab:2a:a1:01:f6:35:7f:bc:9d:19:58:
                    52:b2:02:ed:2f:f4:40:6a:f9:25:96:77:f1:e0:33:
                    2a:98:ad:51:1a:de:98:1d:34:e5:94:53:9c:28:cb:
                    46:3b:70:19:a1:df:20:de:80:95:3c:c0:b1:68:f6:
                    63:36:3a:7b:c8:df:9c:7e:5a:72:6b:de:f5:59:c5:
                    e9:47:8e:72:23:72:eb:4e:32:6a:e7:fc:e1:6b:11:
                    a4:f4:b4:4a:78:76:f6:d5:c1:94:21:06:fd:55:f6:
                    c6:cf:44:6d:65:82:ba:4f:b1:ba:6f:34:1b:fd:4b:
                    54:af:6c:87:af:99:56:07:45:92:03:e1:4f:21:95:
                    e1:3a:93:f3:9f:40:3e:95:03:e2:3d:2b:7f:1e:93:
                    a6:66:6e:1e:d6:6e:ce:30:32:df:9e:fe:73:75:0c:
                    2e:fa:ff:09:48:1b:27:83:e1:63:2a:78:2b:0b:ee:
                    a9:e9:75:7b:7c:51:a5:a0:eb:62:fb:06:11:35:c5:
                    b5:6c:90:24:3d:bd:f3:7b:2b:d3:a7:07:00:1e:44:
                    02:4d:7a:cd:e5:6a:68:ad:56:20:9d:2f:d5:3d:d7:
                    b8:c4:4f:7a:9b:2a:21:34:4a:da:5d:86:24:1e:f7:
                    f5:65:59:86:18:df:ac:e1:99:f6:07:82:4a:0b:5f:
                    bd:27
                Exponent: 65537 (0x10001)
        X509v3 extensions:
            X509v3 Basic Constraints: 
                CA:FALSE
            X509v3 Subject Key Identifier: 
                B5:DC:9B:33:F3:3B:9F:35:18:CF:4E:14:FA:F5:01:85:4B:0F:EB:8D
            X509v3 Authority Key Identifier: 
                keyid:DD:51:39:36:25:41:44:10:26:F4:EB:19:58:EB:E1:5D:EE:F0:F5:3A
                DirName:/CN=Easy-RSA CA
                serial:9E:BE:BA:98:39:96:7B:AE

            X509v3 Extended Key Usage: 
                TLS Web Client Authentication
            X509v3 Key Usage: 
                Digital Signature
    Signature Algorithm: sha256WithRSAEncryption
         d6:9c:18:21:73:08:2b:89:fb:cb:df:2d:42:58:06:47:d9:26:
         1d:62:44:67:39:62:ec:66:d3:bf:35:98:6e:40:d2:f2:df:95:
         11:3f:13:c4:e4:5c:62:47:7d:bd:98:65:74:41:bc:35:55:fe:
         b1:70:a8:23:0f:4b:99:87:a3:73:50:86:41:ee:5d:56:d2:be:
         4d:6e:79:ed:7e:96:96:7d:24:f9:c0:63:ba:55:a6:3e:68:5a:
         52:78:ca:85:8f:da:b0:48:6f:2d:05:88:9b:21:d9:47:e3:88:
         61:31:f2:93:b5:12:c8:8b:79:66:e7:47:7c:b4:be:4e:8a:db:
         b0:a3:68:88:4c:67:8f:9b:4d:e0:34:d2:7f:6d:38:9a:5c:2e:
         0f:c8:5a:e0:78:af:74:e1:01:5a:31:7a:ba:1c:39:8a:f2:5b:
         c6:b6:4d:bf:50:79:ed:20:f3:f6:1a:1e:1a:28:73:96:b5:aa:
         e2:36:75:50:67:c7:f5:76:14:87:35:2f:e1:d1:87:4d:b7:7c:
         94:c2:37:b3:aa:de:54:c8:8f:af:55:60:74:50:ff:7a:1e:d7:
         5e:e6:e7:0d:a4:24:06:53:b3:20:81:a9:b8:97:e4:3d:e4:84:
         72:cb:3f:86:ef:31:d2:70:19:5b:21:36:7a:bc:17:e4:2b:57:
         ad:05:d3:43
-----BEGIN CERTIFICATE-----
MIIDVTCCAj2gAwIBAgIQDY75UwW7lgKfuX/Bne12jTANBgkqhkiG9w0BAQsFADAW
MRQwEgYDVQQDDAtFYXN5LVJTQSBDQTAeFw0yMDEyMjExNzU1NDVaFw0yMzAzMjYx
NzU1NDVaMB0xGzAZBgNVBAMMEmNsaWVudDEuZG9tYWluLnRsZDCCASIwDQYJKoZI
hvcNAQEBBQADggEPADCCAQoCggEBANP47qsqoQH2NX+8nRlYUrIC7S/0QGr5JZZ3
8eAzKpitURremB005ZRTnCjLRjtwGaHfIN6AlTzAsWj2YzY6e8jfnH5acmve9VnF
6UeOciNy604yauf84WsRpPS0Snh29tXBlCEG/VX2xs9EbWWCuk+xum80G/1LVK9s
h6+ZVgdFkgPhTyGV4TqT859APpUD4j0rfx6TpmZuHtZuzjAy357+c3UMLvr/CUgb
J4PhYyp4Kwvuqel1e3xRpaDrYvsGETXFtWyQJD2983sr06cHAB5EAk16zeVqaK1W
IJ0v1T3XuMRPepsqITRK2l2GJB739WVZhhjfrOGZ9geCSgtfvScCAwEAAaOBlzCB
lDAJBgNVHRMEAjAAMB0GA1UdDgQWBBS13Jsz8zufNRjPThT69QGFSw/rjTBGBgNV
HSMEPzA9gBTdUTk2JUFEECb06xlY6+Fd7vD1OqEapBgwFjEUMBIGA1UEAwwLRWFz
eS1SU0EgQ0GCCQCevrqYOZZ7rjATBgNVHSUEDDAKBggrBgEFBQcDAjALBgNVHQ8E
BAMCB4AwDQYJKoZIhvcNAQELBQADggEBANacGCFzCCuJ+8vfLUJYBkfZJh1iRGc5
Yuxm0781mG5A0vLflRE/E8TkXGJHfb2YZXRBvDVV/rFwqCMPS5mHo3NQhkHuXVbS
vk1uee1+lpZ9JPnAY7pVpj5oWlJ4yoWP2rBIby0FiJsh2UfjiGEx8pO1EsiLeWbn
R3y0vk6K27CjaIhMZ4+bTeA00n9tOJpcLg/IWuB4r3ThAVoxerocOYryW8a2Tb9Q
ee0g8/YaHhooc5a1quI2dVBnx/V2FIc1L+HRh023fJTCN7Oq3lTIj69VYHRQ/3oe
117m5w2kJAZTsyCBqbiX5D3khHLLP4bvMdJwGVshNnq8F+QrV60F00M=
-----END CERTIFICATE-----
