Certificate:
    Data:
        Version: 3 (0x2)
        Serial Number:
            f3:a8:d6:f8:49:e0:93:ef:b7:e9:f4:17:b1:b7:46:8b
    Signature Algorithm: sha256WithRSAEncryption
        Issuer: CN=Easy-RSA CA
        Validity
            Not Before: Dec 21 17:54:53 2020 GMT
            Not After : Mar 26 17:54:53 2023 GMT
        Subject: CN=server
        Subject Public Key Info:
            Public Key Algorithm: rsaEncryption
                Public-Key: (2048 bit)
                Modulus:
                    00:ba:95:51:b2:08:a8:c8:a9:b9:56:84:7c:29:cb:
                    85:cf:f8:a2:6b:a1:e5:9f:24:7f:e6:f8:a4:6f:d2:
                    a7:2d:40:2c:53:06:29:ba:a1:a5:63:5f:0b:84:be:
                    fc:b8:d5:17:bd:fb:87:ce:dc:0c:f8:5d:69:8f:47:
                    ba:76:b5:26:73:6e:e8:dc:f4:55:4b:eb:e3:5c:b2:
                    0b:b3:d2:ff:36:cd:e8:f7:06:60:45:74:b2:7b:26:
                    0a:81:00:ae:e8:47:a6:cb:44:97:91:ca:16:cc:b2:
                    5d:f8:06:78:4f:66:f9:9b:60:2e:f1:d7:d0:b1:ad:
                    34:52:af:cf:a5:53:39:27:a0:c4:e8:ab:0e:77:5a:
                    65:ce:f7:21:f9:d9:b5:05:e0:ac:2d:85:0d:66:e6:
                    1d:64:d5:8b:bf:af:6d:fb:bc:f5:7d:cf:01:23:83:
                    cd:b9:00:17:53:4d:93:bf:72:3c:f5:75:aa:4c:6e:
                    e0:e9:00:ab:5e:4d:bd:ba:7a:0a:90:27:0c:31:5e:
                    96:e0:2d:08:97:a4:13:1c:1c:d7:cc:19:b5:9c:fe:
                    1b:b6:68:ec:13:40:23:d4:76:df:26:b8:93:de:4b:
                    20:0a:bf:f9:c3:e2:79:33:d9:09:f4:5f:a1:dc:7e:
                    6c:61:6c:aa:91:27:1f:3f:4f:3b:32:27:41:86:cc:
                    1f:4f
                Exponent: 65537 (0x10001)
        X509v3 extensions:
            X509v3 Basic Constraints: 
                CA:FALSE
            X509v3 Subject Key Identifier: 
                E9:3B:02:C7:54:D0:49:FB:55:23:D7:0B:24:D0:07:AD:DD:1F:EE:92
            X509v3 Authority Key Identifier: 
                keyid:DD:51:39:36:25:41:44:10:26:F4:EB:19:58:EB:E1:5D:EE:F0:F5:3A
                DirName:/CN=Easy-RSA CA
                serial:9E:BE:BA:98:39:96:7B:AE

            X509v3 Extended Key Usage: 
                TLS Web Server Authentication
            X509v3 Key Usage: 
                Digital Signature, Key Encipherment
            X509v3 Subject Alternative Name: 
                DNS:server
    Signature Algorithm: sha256WithRSAEncryption
         31:0a:b5:24:b2:42:c6:88:3f:87:07:0d:ab:97:7b:7a:ad:1f:
         20:d6:45:42:aa:d3:9a:3d:9d:85:15:8d:3a:fa:48:b2:6a:93:
         0f:9b:c0:c1:ab:20:ca:ce:b0:af:e1:49:bf:4d:32:e5:cd:6a:
         2f:6d:75:e0:ee:14:c9:d2:52:08:9d:26:d7:02:d1:bd:a5:87:
         13:a6:d0:f9:94:ec:8d:26:b5:14:df:ca:8c:7e:b9:13:83:11:
         ba:4f:b6:76:3a:cc:bc:7b:76:27:b6:9a:bd:ce:1a:98:1d:7b:
         61:46:3d:df:2a:6d:f7:91:6e:b4:64:26:a1:81:39:fd:3c:36:
         2b:2b:d1:eb:fb:4d:7b:c9:4a:44:66:0a:ec:9b:7c:74:27:c2:
         d7:a3:23:ea:06:a5:b9:5e:25:ad:25:15:4b:68:72:c7:d3:10:
         d1:d2:f2:8a:86:ce:2a:79:4c:3a:3f:f4:cc:78:b1:af:2b:76:
         ae:3b:2b:1f:1c:0d:49:a2:7c:4d:9b:4c:bf:b7:5c:b6:77:19:
         db:0f:ff:9c:53:bc:09:2e:6b:ca:bb:8e:55:13:cb:ab:50:90:
         78:36:e1:6a:e1:ea:7d:5d:e0:87:64:91:8e:ec:21:a0:0e:47:
         f1:7a:73:ec:d4:43:31:2e:ec:be:8b:de:cc:bb:85:b6:07:9c:
         ad:b6:25:2b
-----BEGIN CERTIFICATE-----
MIIDXTCCAkWgAwIBAgIRAPOo1vhJ4JPvt+n0F7G3RoswDQYJKoZIhvcNAQELBQAw
FjEUMBIGA1UEAwwLRWFzeS1SU0EgQ0EwHhcNMjAxMjIxMTc1NDUzWhcNMjMwMzI2
MTc1NDUzWjARMQ8wDQYDVQQDDAZzZXJ2ZXIwggEiMA0GCSqGSIb3DQEBAQUAA4IB
DwAwggEKAoIBAQC6lVGyCKjIqblWhHwpy4XP+KJroeWfJH/m+KRv0qctQCxTBim6
oaVjXwuEvvy41Re9+4fO3Az4XWmPR7p2tSZzbujc9FVL6+Ncsguz0v82zej3BmBF
dLJ7JgqBAK7oR6bLRJeRyhbMsl34BnhPZvmbYC7x19CxrTRSr8+lUzknoMToqw53
WmXO9yH52bUF4KwthQ1m5h1k1Yu/r237vPV9zwEjg825ABdTTZO/cjz1dapMbuDp
AKteTb26egqQJwwxXpbgLQiXpBMcHNfMGbWc/hu2aOwTQCPUdt8muJPeSyAKv/nD
4nkz2Qn0X6HcfmxhbKqRJx8/TzsyJ0GGzB9PAgMBAAGjgaowgacwCQYDVR0TBAIw
ADAdBgNVHQ4EFgQU6TsCx1TQSftVI9cLJNAHrd0f7pIwRgYDVR0jBD8wPYAU3VE5
NiVBRBAm9OsZWOvhXe7w9TqhGqQYMBYxFDASBgNVBAMMC0Vhc3ktUlNBIENBggkA
nr66mDmWe64wEwYDVR0lBAwwCgYIKwYBBQUHAwEwCwYDVR0PBAQDAgWgMBEGA1Ud
EQQKMAiCBnNlcnZlcjANBgkqhkiG9w0BAQsFAAOCAQEAMQq1JLJCxog/hwcNq5d7
eq0fINZFQqrTmj2dhRWNOvpIsmqTD5vAwasgys6wr+FJv00y5c1qL2114O4UydJS
CJ0m1wLRvaWHE6bQ+ZTsjSa1FN/KjH65E4MRuk+2djrMvHt2J7aavc4amB17YUY9
3ypt95FutGQmoYE5/Tw2KyvR6/tNe8lKRGYK7Jt8dCfC16Mj6galuV4lrSUVS2hy
x9MQ0dLyiobOKnlMOj/0zHixryt2rjsrHxwNSaJ8TZtMv7dctncZ2w//nFO8CS5r
yruOVRPLq1CQeDbhauHqfV3gh2SRjuwhoA5H8Xpz7NRDMS7svovezLuFtgecrbYl
Kw==
-----END CERTIFICATE-----
